; Function Attrs: mustprogress nounwind uwtable
define hidden void @_ZN21ShenandoahGCPauseMarkC2EjPKcN11SvcGCMarker11reason_typeE(ptr noundef nonnull align 8 dereferenceable(48) %0, i32 noundef %1, ptr noundef %2, i32 noundef %3) unnamed_addr #0 align 2 {
  %5 = load ptr, ptr @_ZN8Universe14_collectedHeapE, align 8
  store ptr %5, ptr %0, align 8
  %6 = getelementptr inbounds i8, ptr %0, i64 8
  tail call void @_ZN8GCIdMarkC1Ej(ptr noundef nonnull align 4 dereferenceable(4) %6, i32 noundef %1) #12
  %7 = getelementptr inbounds i8, ptr %0, i64 13
  tail call void @_ZN13JvmtiGCMarkerC1Ev(ptr noundef nonnull align 1 dereferenceable(1) %7) #12
  %8 = icmp eq i32 %3, 1
  tail call void @_ZN15VM_GC_Operation15notify_gc_beginEb(i1 noundef zeroext %8) #12
  %9 = getelementptr inbounds i8, ptr %0, i64 14
  tail call void @_ZN17IsSTWGCActiveMarkC1Ev(ptr noundef nonnull align 1 dereferenceable(1) %9) #12
  %10 = getelementptr inbounds i8, ptr %0, i64 16
  %11 = load ptr, ptr %0, align 8
  %12 = getelementptr inbounds i8, ptr %11, i64 1704
  %13 = getelementptr inbounds i8, ptr %11, i64 80
  %14 = load i32, ptr %13, align 8
  tail call void @_ZN23TraceMemoryManagerStats10initializeEP15GCMemoryManagerN7GCCause5CauseEPKcbbbbbbbb(ptr noundef nonnull align 8 dereferenceable(32) %10, ptr noundef nonnull %12, i32 noundef %14, ptr noundef %2, i1 noundef zeroext true, i1 noundef zeroext true, i1 noundef zeroext false, i1 noundef zeroext false, i1 noundef zeroext false, i1 noundef zeroext true, i1 noundef zeroext true, i1 noundef zeroext true) #12
  ret void
}